target datalayout = "e-m:e-p270:32:32-p271:32:32-p272:64:64-i64:64-i128:128-f80:128-n8:16:32:64-S128"
target triple = "x86_64-pc-linux-gnu"

%struct.anon = type { i8 }
%"struct.std::__1::basic_string<char>::__short" = type { %struct.anon, [23 x i8] }
%"class.std::__1::basic_string" = type { %"union.std::__1::basic_string<char>::__rep" }
%"union.std::__1::basic_string<char>::__rep" = type { %"struct.std::__1::basic_string<char>::__long" }
%"struct.std::__1::basic_string<char>::__long" = type { %struct.anon.0, i64, ptr }
%struct.anon.0 = type { i64 }

@_ZZNSt3__1L11init_monthsEvE6months = internal global [24 x %"class.std::__1::basic_string"] zeroinitializer, align 16

; Function Attrs: mustprogress nounwind uwtable
define linkonce_odr hidden noundef ptr @_ZNSt3__114pointer_traitsIPKcE10pointer_toB8ne210000ERS1_(ptr noundef nonnull align 1 dereferenceable(1) %0) #0 comdat align 2 {
  %2 = alloca ptr, align 8
  store ptr %0, ptr %2, align 8, !tbaa !9
  %3 = load ptr, ptr %2, align 8, !tbaa !9
  ret ptr %3
}

; Function Attrs: mustprogress nounwind uwtable
define linkonce_odr hidden void @_ZNSt3__124__libcpp_operator_deleteB8ne210000IJPcmEEEvDpT_(ptr noundef %0, i64 noundef %1) #0 comdat {
  %3 = alloca ptr, align 8
  %4 = alloca i64, align 8
  store ptr %0, ptr %3, align 8, !tbaa !9
  store i64 %1, ptr %4, align 8, !tbaa !16
  %5 = load ptr, ptr %3, align 8, !tbaa !9
  %6 = load i64, ptr %4, align 8, !tbaa !16
  call void @_ZdlPvm(ptr noundef %5, i64 noundef %6) #28
  ret void
}

; Function Attrs: mustprogress nounwind uwtable
define linkonce_odr hidden void @_ZNSt3__124__libcpp_operator_deleteB8ne210000IJPcmSt11align_val_tEEEvDpT_(ptr noundef %0, i64 noundef %1, i64 noundef %2) #0 comdat {
  %4 = alloca ptr, align 8
  %5 = alloca i64, align 8
  %6 = alloca i64, align 8
  store ptr %0, ptr %4, align 8, !tbaa !9
  store i64 %1, ptr %5, align 8, !tbaa !16
  store i64 %2, ptr %6, align 8, !tbaa !715
  %7 = load ptr, ptr %4, align 8, !tbaa !9
  %8 = load i64, ptr %5, align 8, !tbaa !16
  %9 = load i64, ptr %6, align 8, !tbaa !715
  call void @_ZdlPvmSt11align_val_t(ptr noundef %7, i64 noundef %8, i64 noundef %9) #28
  ret void
}

; Function Attrs: inlinehint mustprogress nounwind uwtable
define linkonce_odr hidden noundef zeroext i1 @_ZNSt3__124__is_overaligned_for_newB8ne210000Em(i64 noundef %0) #4 comdat {
  %2 = alloca i64, align 8
  store i64 %0, ptr %2, align 8, !tbaa !16
  %3 = load i64, ptr %2, align 8, !tbaa !16
  %4 = icmp ugt i64 %3, 16
  ret i1 %4
}

; Function Attrs: mustprogress nounwind uwtable
define linkonce_odr hidden noundef ptr @_ZNKSt3__112basic_stringIcNS_11char_traitsIcEENS_9allocatorIcEEE19__get_short_pointerB8ne210000Ev(ptr noundef nonnull align 8 dereferenceable(24) %0) #0 comdat align 2 {
  %2 = alloca ptr, align 8
  store ptr %0, ptr %2, align 8, !tbaa !14
  %3 = load ptr, ptr %2, align 8
  %4 = getelementptr inbounds nuw %"class.std::__1::basic_string", ptr %3, i32 0, i32 0
  %5 = getelementptr inbounds nuw %"struct.std::__1::basic_string<char>::__short", ptr %4, i32 0, i32 1
  %6 = getelementptr inbounds [23 x i8], ptr %5, i64 0, i64 0
  %7 = call noundef ptr @_ZNSt3__114pointer_traitsIPKcE10pointer_toB8ne210000ERS1_(ptr noundef nonnull align 1 dereferenceable(1) %6) #13
  ret ptr %7
}

; Function Attrs: mustprogress nounwind uwtable
define linkonce_odr hidden noundef ptr @_ZNKSt3__112basic_stringIcNS_11char_traitsIcEENS_9allocatorIcEEE18__get_long_pointerB8ne210000Ev(ptr noundef nonnull align 8 dereferenceable(24) %0) #0 comdat align 2 {
  %2 = alloca ptr, align 8
  store ptr %0, ptr %2, align 8, !tbaa !14
  %3 = load ptr, ptr %2, align 8
  %4 = getelementptr inbounds nuw %"class.std::__1::basic_string", ptr %3, i32 0, i32 0
  %5 = getelementptr inbounds nuw %"struct.std::__1::basic_string<char>::__long", ptr %4, i32 0, i32 2
  %6 = load ptr, ptr %5, align 8, !tbaa !11
  ret ptr %6
}

; Function Attrs: inlinehint mustprogress nounwind uwtable
define linkonce_odr hidden void @_ZNSt3__119__libcpp_deallocateB8ne210000IcEEvPNS_15__type_identityIT_E4typeENS_15__element_countEm(ptr noundef %0, i64 noundef %1, i64 noundef %2) #4 comdat {
  %4 = alloca ptr, align 8
  %5 = alloca i64, align 8
  %6 = alloca i64, align 8
  %7 = alloca i64, align 8
  %8 = alloca i64, align 8
  %9 = alloca i32, align 4
  store ptr %0, ptr %4, align 8, !tbaa !9
  store i64 %1, ptr %5, align 8, !tbaa !713
  store i64 %2, ptr %6, align 8, !tbaa !16
  call void @llvm.lifetime.start.p0(i64 8, ptr %7) #13
  %10 = load i64, ptr %5, align 8, !tbaa !713
  %11 = mul i64 %10, 1
  store i64 %11, ptr %7, align 8, !tbaa !16
  %12 = load i64, ptr %6, align 8, !tbaa !16
  %13 = call noundef zeroext i1 @_ZNSt3__124__is_overaligned_for_newB8ne210000Em(i64 noundef %12) #13
  br i1 %13, label %14, label %19

14:                                               ; preds = %3
  call void @llvm.lifetime.start.p0(i64 8, ptr %8) #13
  %15 = load i64, ptr %6, align 8, !tbaa !16
  store i64 %15, ptr %8, align 8, !tbaa !715
  %16 = load ptr, ptr %4, align 8, !tbaa !9
  %17 = load i64, ptr %7, align 8, !tbaa !16
  %18 = load i64, ptr %8, align 8, !tbaa !715
  call void @_ZNSt3__124__libcpp_operator_deleteB8ne210000IJPcmSt11align_val_tEEEvDpT_(ptr noundef %16, i64 noundef %17, i64 noundef %18) #13
  store i32 1, ptr %9, align 4
  call void @llvm.lifetime.end.p0(i64 8, ptr %8) #13
  br label %22

19:                                               ; preds = %3
  %20 = load ptr, ptr %4, align 8, !tbaa !9
  %21 = load i64, ptr %7, align 8, !tbaa !16
  call void @_ZNSt3__124__libcpp_operator_deleteB8ne210000IJPcmEEEvDpT_(ptr noundef %20, i64 noundef %21) #13
  store i32 1, ptr %9, align 4
  br label %22

22:                                               ; preds = %19, %14
  call void @llvm.lifetime.end.p0(i64 8, ptr %7) #13
  ret void
}

; Function Attrs: mustprogress nounwind uwtable
define linkonce_odr hidden noundef i64 @_ZNKSt3__112basic_stringIcNS_11char_traitsIcEENS_9allocatorIcEEE16__get_short_sizeB8ne210000Ev(ptr noundef nonnull align 8 dereferenceable(24) %0) #0 comdat align 2 {
  %2 = alloca ptr, align 8
  store ptr %0, ptr %2, align 8, !tbaa !14
  %3 = load ptr, ptr %2, align 8
  %4 = getelementptr inbounds nuw %"class.std::__1::basic_string", ptr %3, i32 0, i32 0
  %5 = getelementptr inbounds nuw %"struct.std::__1::basic_string<char>::__short", ptr %4, i32 0, i32 0
  %6 = load i8, ptr %5, align 8
  %7 = lshr i8 %6, 1
  %8 = zext i8 %7 to i64
  ret i64 %8
}

; Function Attrs: mustprogress nounwind uwtable
define linkonce_odr hidden noundef i64 @_ZNKSt3__112basic_stringIcNS_11char_traitsIcEENS_9allocatorIcEEE15__get_long_sizeB8ne210000Ev(ptr noundef nonnull align 8 dereferenceable(24) %0) #0 comdat align 2 {
  %2 = alloca ptr, align 8
  store ptr %0, ptr %2, align 8, !tbaa !14
  %3 = load ptr, ptr %2, align 8
  %4 = getelementptr inbounds nuw %"class.std::__1::basic_string", ptr %3, i32 0, i32 0
  %5 = getelementptr inbounds nuw %"struct.std::__1::basic_string<char>::__long", ptr %4, i32 0, i32 1
  %6 = load i64, ptr %5, align 8, !tbaa !11
  ret i64 %6
}

; Function Attrs: mustprogress nounwind uwtable
define linkonce_odr hidden noundef ptr @_ZNSt3__112__to_addressB8ne210000IKcEEPT_S3_(ptr noundef %0) #0 comdat {
  %2 = alloca ptr, align 8
  store ptr %0, ptr %2, align 8, !tbaa !9
  %3 = load ptr, ptr %2, align 8, !tbaa !9
  ret ptr %3
}

; Function Attrs: mustprogress nounwind uwtable
define linkonce_odr hidden noundef ptr @_ZNKSt3__112basic_stringIcNS_11char_traitsIcEENS_9allocatorIcEEE13__get_pointerB8ne210000Ev(ptr noundef nonnull align 8 dereferenceable(24) %0) #0 comdat align 2 {
  %2 = alloca ptr, align 8
  store ptr %0, ptr %2, align 8, !tbaa !14
  %3 = load ptr, ptr %2, align 8
  %4 = call noundef zeroext i1 @_ZNKSt3__112basic_stringIcNS_11char_traitsIcEENS_9allocatorIcEEE9__is_longB8ne210000Ev(ptr noundef nonnull align 8 dereferenceable(24) %3) #13
  br i1 %4, label %5, label %7

5:                                                ; preds = %1
  %6 = call noundef ptr @_ZNKSt3__112basic_stringIcNS_11char_traitsIcEENS_9allocatorIcEEE18__get_long_pointerB8ne210000Ev(ptr noundef nonnull align 8 dereferenceable(24) %3) #13
  br label %9

7:                                                ; preds = %1
  %8 = call noundef ptr @_ZNKSt3__112basic_stringIcNS_11char_traitsIcEENS_9allocatorIcEEE19__get_short_pointerB8ne210000Ev(ptr noundef nonnull align 8 dereferenceable(24) %3) #13
  br label %9

9:                                                ; preds = %7, %5
  %10 = phi ptr [ %6, %5 ], [ %8, %7 ]
  ret ptr %10
}

; Function Attrs: mustprogress nounwind uwtable
define linkonce_odr hidden void @_ZNSt3__19allocatorIcE10deallocateB8ne210000EPcm(ptr noundef nonnull align 1 dereferenceable(1) %0, ptr noundef %1, i64 noundef %2) #0 comdat align 2 {
  %4 = alloca ptr, align 8
  %5 = alloca ptr, align 8
  %6 = alloca i64, align 8
  store ptr %0, ptr %4, align 8, !tbaa !704
  store ptr %1, ptr %5, align 8, !tbaa !9
  store i64 %2, ptr %6, align 8, !tbaa !16
  %7 = load ptr, ptr %5, align 8, !tbaa !9
  %8 = load i64, ptr %6, align 8, !tbaa !16
  call void @_ZNSt3__119__libcpp_deallocateB8ne210000IcEEvPNS_15__type_identityIT_E4typeENS_15__element_countEm(ptr noundef %7, i64 noundef %8, i64 noundef 1) #13
  ret void
}

; Function Attrs: mustprogress nounwind uwtable
define linkonce_odr hidden void @_ZNKSt3__112basic_stringIcNS_11char_traitsIcEENS_9allocatorIcEEE31__annotate_contiguous_containerB8ne210000EPKvS7_(ptr noundef nonnull align 8 dereferenceable(24) %0, ptr noundef %1, ptr noundef %2) #0 comdat align 2 {
  %4 = alloca ptr, align 8
  %5 = alloca ptr, align 8
  %6 = alloca ptr, align 8
  store ptr %0, ptr %4, align 8, !tbaa !14
  store ptr %1, ptr %5, align 8, !tbaa !55
  store ptr %2, ptr %6, align 8, !tbaa !55
  ret void
}

; Function Attrs: mustprogress nounwind uwtable
define linkonce_odr hidden noundef i64 @_ZNKSt3__112basic_stringIcNS_11char_traitsIcEENS_9allocatorIcEEE8capacityB8ne210000Ev(ptr noundef nonnull align 8 dereferenceable(24) %0) #0 comdat align 2 {
  %2 = alloca ptr, align 8
  store ptr %0, ptr %2, align 8, !tbaa !14
  %3 = load ptr, ptr %2, align 8
  %4 = call noundef zeroext i1 @_ZNKSt3__112basic_stringIcNS_11char_traitsIcEENS_9allocatorIcEEE9__is_longB8ne210000Ev(ptr noundef nonnull align 8 dereferenceable(24) %3) #13
  br i1 %4, label %5, label %7

5:                                                ; preds = %1
  %6 = call noundef i64 @_ZNKSt3__112basic_stringIcNS_11char_traitsIcEENS_9allocatorIcEEE14__get_long_capB8ne210000Ev(ptr noundef nonnull align 8 dereferenceable(24) %3) #13
  br label %8

7:                                                ; preds = %1
  br label %8

8:                                                ; preds = %7, %5
  %9 = phi i64 [ %6, %5 ], [ 23, %7 ]
  %10 = sub i64 %9, 1
  ret i64 %10
}

; Function Attrs: mustprogress nounwind uwtable
define linkonce_odr hidden noundef i64 @_ZNKSt3__112basic_stringIcNS_11char_traitsIcEENS_9allocatorIcEEE4sizeB8ne210000Ev(ptr noundef nonnull align 8 dereferenceable(24) %0) #0 comdat align 2 {
  %2 = alloca ptr, align 8
  store ptr %0, ptr %2, align 8, !tbaa !14
  %3 = load ptr, ptr %2, align 8
  %4 = call noundef zeroext i1 @_ZNKSt3__112basic_stringIcNS_11char_traitsIcEENS_9allocatorIcEEE9__is_longB8ne210000Ev(ptr noundef nonnull align 8 dereferenceable(24) %3) #13
  br i1 %4, label %5, label %7

5:                                                ; preds = %1
  %6 = call noundef i64 @_ZNKSt3__112basic_stringIcNS_11char_traitsIcEENS_9allocatorIcEEE15__get_long_sizeB8ne210000Ev(ptr noundef nonnull align 8 dereferenceable(24) %3) #13
  br label %9

7:                                                ; preds = %1
  %8 = call noundef i64 @_ZNKSt3__112basic_stringIcNS_11char_traitsIcEENS_9allocatorIcEEE16__get_short_sizeB8ne210000Ev(ptr noundef nonnull align 8 dereferenceable(24) %3) #13
  br label %9

9:                                                ; preds = %7, %5
  %10 = phi i64 [ %6, %5 ], [ %8, %7 ]
  ret i64 %10
}

; Function Attrs: mustprogress nounwind uwtable
define linkonce_odr hidden noundef ptr @_ZNKSt3__112basic_stringIcNS_11char_traitsIcEENS_9allocatorIcEEE4dataB8ne210000Ev(ptr noundef nonnull align 8 dereferenceable(24) %0) #0 comdat align 2 {
  %2 = alloca ptr, align 8
  store ptr %0, ptr %2, align 8, !tbaa !14
  %3 = load ptr, ptr %2, align 8
  %4 = call noundef ptr @_ZNKSt3__112basic_stringIcNS_11char_traitsIcEENS_9allocatorIcEEE13__get_pointerB8ne210000Ev(ptr noundef nonnull align 8 dereferenceable(24) %3) #13
  %5 = call noundef ptr @_ZNSt3__112__to_addressB8ne210000IKcEEPT_S3_(ptr noundef %4) #13
  ret ptr %5
}

; Function Attrs: mustprogress nounwind uwtable
define linkonce_odr hidden void @_ZNSt3__116allocator_traitsINS_9allocatorIcEEE10deallocateB8ne210000ERS2_Pcm(ptr noundef nonnull align 1 dereferenceable(1) %0, ptr noundef %1, i64 noundef %2) #0 comdat align 2 {
  %4 = alloca ptr, align 8
  %5 = alloca ptr, align 8
  %6 = alloca i64, align 8
  store ptr %0, ptr %4, align 8, !tbaa !704
  store ptr %1, ptr %5, align 8, !tbaa !9
  store i64 %2, ptr %6, align 8, !tbaa !16
  %7 = load ptr, ptr %4, align 8, !tbaa !704
  %8 = load ptr, ptr %5, align 8, !tbaa !9
  %9 = load i64, ptr %6, align 8, !tbaa !16
  call void @_ZNSt3__19allocatorIcE10deallocateB8ne210000EPcm(ptr noundef nonnull align 1 dereferenceable(1) %7, ptr noundef %8, i64 noundef %9) #13
  ret void
}

; Function Attrs: mustprogress nounwind uwtable
define linkonce_odr hidden noundef i64 @_ZNKSt3__112basic_stringIcNS_11char_traitsIcEENS_9allocatorIcEEE14__get_long_capB8ne210000Ev(ptr noundef nonnull align 8 dereferenceable(24) %0) #0 comdat align 2 {
  %2 = alloca ptr, align 8
  store ptr %0, ptr %2, align 8, !tbaa !14
  %3 = load ptr, ptr %2, align 8
  %4 = getelementptr inbounds nuw %"class.std::__1::basic_string", ptr %3, i32 0, i32 0
  %5 = getelementptr inbounds nuw %"struct.std::__1::basic_string<char>::__long", ptr %4, i32 0, i32 0
  %6 = load i64, ptr %5, align 8
  %7 = lshr i64 %6, 1
  %8 = mul i64 %7, 2
  ret i64 %8
}

; Function Attrs: mustprogress nounwind uwtable
define linkonce_odr hidden noundef ptr @_ZNSt3__112basic_stringIcNS_11char_traitsIcEENS_9allocatorIcEEE18__get_long_pointerB8ne210000Ev(ptr noundef nonnull align 8 dereferenceable(24) %0) #0 comdat align 2 {
  %2 = alloca ptr, align 8
  store ptr %0, ptr %2, align 8, !tbaa !14
  %3 = load ptr, ptr %2, align 8
  %4 = getelementptr inbounds nuw %"class.std::__1::basic_string", ptr %3, i32 0, i32 0
  %5 = getelementptr inbounds nuw %"struct.std::__1::basic_string<char>::__long", ptr %4, i32 0, i32 2
  %6 = load ptr, ptr %5, align 8, !tbaa !11
  ret ptr %6
}

; Function Attrs: mustprogress nounwind uwtable
define linkonce_odr hidden noundef zeroext i1 @_ZNKSt3__112basic_stringIcNS_11char_traitsIcEENS_9allocatorIcEEE9__is_longB8ne210000Ev(ptr noundef nonnull align 8 dereferenceable(24) %0) #0 comdat align 2 {
  %2 = alloca ptr, align 8
  store ptr %0, ptr %2, align 8, !tbaa !14
  %3 = load ptr, ptr %2, align 8
  %4 = getelementptr inbounds nuw %"class.std::__1::basic_string", ptr %3, i32 0, i32 0
  %5 = getelementptr inbounds nuw %"struct.std::__1::basic_string<char>::__short", ptr %4, i32 0, i32 0
  %6 = load i8, ptr %5, align 8
  %7 = and i8 %6, 1
  %8 = icmp ne i8 %7, 0
  ret i1 %8
}

; Function Attrs: mustprogress nounwind uwtable
define linkonce_odr hidden void @_ZNKSt3__112basic_stringIcNS_11char_traitsIcEENS_9allocatorIcEEE17__annotate_deleteB8ne210000Ev(ptr noundef nonnull align 8 dereferenceable(24) %0) #0 comdat align 2 {
  %2 = alloca ptr, align 8
  store ptr %0, ptr %2, align 8, !tbaa !14
  %3 = load ptr, ptr %2, align 8
  %4 = call noundef ptr @_ZNKSt3__112basic_stringIcNS_11char_traitsIcEENS_9allocatorIcEEE4dataB8ne210000Ev(ptr noundef nonnull align 8 dereferenceable(24) %3) #13
  %5 = call noundef i64 @_ZNKSt3__112basic_stringIcNS_11char_traitsIcEENS_9allocatorIcEEE4sizeB8ne210000Ev(ptr noundef nonnull align 8 dereferenceable(24) %3) #13
  %6 = getelementptr inbounds nuw i8, ptr %4, i64 %5
  %7 = getelementptr inbounds i8, ptr %6, i64 1
  %8 = call noundef ptr @_ZNKSt3__112basic_stringIcNS_11char_traitsIcEENS_9allocatorIcEEE4dataB8ne210000Ev(ptr noundef nonnull align 8 dereferenceable(24) %3) #13
  %9 = call noundef i64 @_ZNKSt3__112basic_stringIcNS_11char_traitsIcEENS_9allocatorIcEEE8capacityB8ne210000Ev(ptr noundef nonnull align 8 dereferenceable(24) %3) #13
  %10 = getelementptr inbounds nuw i8, ptr %8, i64 %9
  %11 = getelementptr inbounds i8, ptr %10, i64 1
  call void @_ZNKSt3__112basic_stringIcNS_11char_traitsIcEENS_9allocatorIcEEE31__annotate_contiguous_containerB8ne210000EPKvS7_(ptr noundef nonnull align 8 dereferenceable(24) %3, ptr noundef %7, ptr noundef %11)
  ret void
}

; Function Attrs: inlinehint mustprogress nounwind uwtable
define available_externally void @_ZNSt3__112basic_stringIcNS_11char_traitsIcEENS_9allocatorIcEEED2Ev(ptr noundef nonnull align 8 dereferenceable(24) %0) unnamed_addr #4 align 2 {
  %2 = alloca ptr, align 8
  store ptr %0, ptr %2, align 8, !tbaa !14
  %3 = load ptr, ptr %2, align 8
  call void @_ZNKSt3__112basic_stringIcNS_11char_traitsIcEENS_9allocatorIcEEE17__annotate_deleteB8ne210000Ev(ptr noundef nonnull align 8 dereferenceable(24) %3) #13
  %4 = call noundef zeroext i1 @_ZNKSt3__112basic_stringIcNS_11char_traitsIcEENS_9allocatorIcEEE9__is_longB8ne210000Ev(ptr noundef nonnull align 8 dereferenceable(24) %3) #13
  br i1 %4, label %5, label %8

5:                                                ; preds = %1
  %6 = call noundef ptr @_ZNSt3__112basic_stringIcNS_11char_traitsIcEENS_9allocatorIcEEE18__get_long_pointerB8ne210000Ev(ptr noundef nonnull align 8 dereferenceable(24) %3) #13
  %7 = call noundef i64 @_ZNKSt3__112basic_stringIcNS_11char_traitsIcEENS_9allocatorIcEEE14__get_long_capB8ne210000Ev(ptr noundef nonnull align 8 dereferenceable(24) %3) #13
  call void @_ZNSt3__116allocator_traitsINS_9allocatorIcEEE10deallocateB8ne210000ERS2_Pcm(ptr noundef nonnull align 1 dereferenceable(1) %3, ptr noundef %6, i64 noundef %7) #13
  br label %8

8:                                                ; preds = %5, %1
  ret void
}

; Function Attrs: uwtable
define internal void @__cxx_global_array_dtor.93(ptr noundef %0) #18 section ".text.startup" {
  %2 = alloca ptr, align 8
  store ptr %0, ptr %2, align 8, !tbaa !55
  br label %3

3:                                                ; preds = %3, %1
  %4 = phi ptr [ getelementptr inbounds (%"class.std::__1::basic_string", ptr @_ZZNSt3__1L11init_monthsEvE6months, i64 24), %1 ], [ %5, %3 ]
  %5 = getelementptr inbounds %"class.std::__1::basic_string", ptr %4, i64 -1
  call void @_ZNSt3__112basic_stringIcNS_11char_traitsIcEENS_9allocatorIcEEED2Ev(ptr noundef nonnull align 8 dereferenceable(24) %5) #13
  %6 = icmp eq ptr %5, @_ZZNSt3__1L11init_monthsEvE6months
  br i1 %6, label %7, label %3

7:                                                ; preds = %3
  ret void
}