; Function Attrs: nounwind uwtable
define internal void @__cxx_global_array_dtor.93(ptr readnone captures(none) %0) #40 section ".text.startup" {
  br label %2

2:                                                ; preds = %_ZNSt3__112basic_stringIcNS_11char_traitsIcEENS_9allocatorIcEEED2Ev.exit, %1
  %3 = phi ptr [ getelementptr inbounds nuw (i8, ptr @_ZZNSt3__1L11init_monthsEvE6months, i64 576), %1 ], [ %4, %_ZNSt3__112basic_stringIcNS_11char_traitsIcEENS_9allocatorIcEEED2Ev.exit ]
  %4 = getelementptr inbounds i8, ptr %3, i64 -24
  %5 = load i8, ptr %4, align 8
  %6 = and i8 %5, 1
  %.not.i = icmp eq i8 %6, 0
  br i1 %.not.i, label %_ZNSt3__112basic_stringIcNS_11char_traitsIcEENS_9allocatorIcEEED2Ev.exit, label %7

7:                                                ; preds = %2
  %8 = getelementptr inbounds i8, ptr %3, i64 -8
  %9 = load ptr, ptr %8, align 8, !tbaa !4
  %10 = load i64, ptr %4, align 8
  %11 = and i64 %10, -2
  tail call void @_ZdlPvm(ptr noundef %9, i64 noundef %11) #46
  br label %_ZNSt3__112basic_stringIcNS_11char_traitsIcEENS_9allocatorIcEEED2Ev.exit

_ZNSt3__112basic_stringIcNS_11char_traitsIcEENS_9allocatorIcEEED2Ev.exit: ; preds = %2, %7
  %12 = icmp eq ptr %4, @_ZZNSt3__1L11init_monthsEvE6months
  br i1 %12, label %13, label %2

13:                                               ; preds = %_ZNSt3__112basic_stringIcNS_11char_traitsIcEENS_9allocatorIcEEED2Ev.exit
  ret void
}